; Function Attrs: mustprogress uwtable
define noundef zeroext i1 @_ZN16WirelessTimeline5eventEP6QEvent(ptr noundef nonnull align 8 dereferenceable(896) %0, ptr noundef %1) unnamed_addr #0 align 2 personality ptr @__gxx_personality_v0 {
  %3 = alloca %class.QPoint, align 4
  %4 = alloca %class.QString, align 8
  %5 = alloca %class.QRect, align 16
  %6 = getelementptr inbounds i8, ptr %1, i64 8
  %7 = load i16, ptr %6, align 8
  %8 = icmp eq i16 %7, 110
  br i1 %8, label %9, label %36

9:                                                ; preds = %2
  %10 = getelementptr inbounds i8, ptr %1, i64 16
  %11 = load i32, ptr %10, align 4
  %12 = sitofp i32 %11 to double
  %13 = tail call noundef i32 @_ZN16WirelessTimeline11find_packetEd(ptr noundef nonnull align 8 dereferenceable(896) %0, double noundef %12)
  %.not = icmp eq i32 %13, 0
  br i1 %.not, label %22, label %14

14:                                               ; preds = %9
  %15 = getelementptr inbounds i8, ptr %0, i64 888
  %16 = load ptr, ptr %15, align 8
  %17 = zext i32 %13 to i64
  %18 = inttoptr i64 %17 to ptr
  %19 = tail call noundef ptr @g_hash_table_lookup(ptr noundef %16, ptr noundef nonnull %18)
  %20 = getelementptr inbounds i8, ptr %1, i64 24
  %.sroa.0.0.copyload = load i64, ptr %20, align 4
  %21 = load i32, ptr %10, align 4
  tail call void @_ZN16WirelessTimeline9doToolTipEP10wlan_radio6QPointi(ptr noundef nonnull align 8 dereferenceable(896) %0, ptr noundef %19, i64 %.sroa.0.0.copyload, i32 noundef %21)
  br label %38

22:                                               ; preds = %9
  call void @llvm.lifetime.start.p0(i64 8, ptr nonnull %3)
  call void @llvm.lifetime.start.p0(i64 24, ptr nonnull %4)
  call void @llvm.lifetime.start.p0(i64 16, ptr nonnull %5)
  store i32 0, ptr %3, align 4
  %23 = getelementptr inbounds i8, ptr %3, i64 4
  store i32 0, ptr %23, align 4
  call void @llvm.memset.p0.i64(ptr noundef nonnull align 8 dereferenceable(24) %4, i8 0, i64 24, i1 false)
  store <4 x i32> <i32 0, i32 0, i32 -1, i32 -1>, ptr %5, align 16
  invoke void @_ZN8QToolTip8showTextERK6QPointRK7QStringP7QWidgetRK5QRecti(ptr noundef nonnull align 4 dereferenceable(8) %3, ptr noundef nonnull align 8 dereferenceable(24) %4, ptr noundef null, ptr noundef nonnull align 4 dereferenceable(16) %5, i32 noundef -1)
          to label %24 unwind label %29

24:                                               ; preds = %22
  %25 = load ptr, ptr %4, align 8
  %.not.i.i.i.i = icmp eq ptr %25, null
  br i1 %.not.i.i.i.i, label %_ZN8QToolTip8hideTextEv.exit, label %_ZN17QArrayDataPointerIDsE5derefEv.exit.i.i.i

_ZN17QArrayDataPointerIDsE5derefEv.exit.i.i.i:    ; preds = %24
  %26 = atomicrmw sub ptr %25, i32 1 seq_cst, align 4
  %.not.i.i.i = icmp eq i32 %26, 1
  br i1 %.not.i.i.i, label %27, label %_ZN8QToolTip8hideTextEv.exit

27:                                               ; preds = %_ZN17QArrayDataPointerIDsE5derefEv.exit.i.i.i
  %28 = load ptr, ptr %4, align 8
  call void @_ZN10QArrayData10deallocateEPS_xx(ptr noundef %28, i64 noundef 2, i64 noundef 8) #18
  br label %_ZN8QToolTip8hideTextEv.exit

29:                                               ; preds = %22
  %30 = landingpad { ptr, i32 }
          cleanup
  %31 = load ptr, ptr %4, align 8
  %.not.i.i.i1.i = icmp eq ptr %31, null
  br i1 %.not.i.i.i1.i, label %_ZN7QStringD2Ev.exit4.i, label %_ZN17QArrayDataPointerIDsE5derefEv.exit.i.i2.i

_ZN17QArrayDataPointerIDsE5derefEv.exit.i.i2.i:   ; preds = %29
  %32 = atomicrmw sub ptr %31, i32 1 seq_cst, align 4
  %.not.i.i3.i = icmp eq i32 %32, 1
  br i1 %.not.i.i3.i, label %33, label %_ZN7QStringD2Ev.exit4.i

33:                                               ; preds = %_ZN17QArrayDataPointerIDsE5derefEv.exit.i.i2.i
  %34 = load ptr, ptr %4, align 8
  call void @_ZN10QArrayData10deallocateEPS_xx(ptr noundef %34, i64 noundef 2, i64 noundef 8) #18
  br label %_ZN7QStringD2Ev.exit4.i

_ZN7QStringD2Ev.exit4.i:                          ; preds = %33, %_ZN17QArrayDataPointerIDsE5derefEv.exit.i.i2.i, %29
  resume { ptr, i32 } %30

_ZN8QToolTip8hideTextEv.exit:                     ; preds = %24, %_ZN17QArrayDataPointerIDsE5derefEv.exit.i.i.i, %27
  call void @llvm.lifetime.end.p0(i64 8, ptr nonnull %3)
  call void @llvm.lifetime.end.p0(i64 24, ptr nonnull %4)
  call void @llvm.lifetime.end.p0(i64 16, ptr nonnull %5)
  %35 = getelementptr inbounds i8, ptr %1, i64 12
  store i8 0, ptr %35, align 4
  br label %38

36:                                               ; preds = %2
  %37 = tail call noundef zeroext i1 @_ZN7QWidget5eventEP6QEvent(ptr noundef nonnull align 8 dereferenceable(40) %0, ptr noundef nonnull %1)
  br label %38

38:                                               ; preds = %14, %_ZN8QToolTip8hideTextEv.exit, %36
  %.0 = phi i1 [ %37, %36 ], [ true, %_ZN8QToolTip8hideTextEv.exit ], [ true, %14 ]
  ret i1 %.0
}